target datalayout = "e-m:e-p270:32:32-p271:32:32-p272:64:64-i64:64-i128:128-f80:128-n8:16:32:64-S128"
target triple = "x86_64-pc-linux-gnu"

%struct.channel_layout_name = type { ptr, %struct.AVChannelLayout }
%struct.AVChannelLayout = type { i32, i32, %union.anon, ptr }
%union.anon = type { i64 }

; Function Attrs: nounwind uwtable
define ptr @av_channel_layout_standard(ptr noundef %0) #0 {
  %2 = alloca ptr, align 8
  %3 = alloca i64, align 8
  %4 = alloca ptr, align 8
  store ptr %0, ptr %2, align 8, !tbaa !54
  call void @llvm.lifetime.start.p0(i64 8, ptr %3) #11
  %5 = load ptr, ptr %2, align 8, !tbaa !54
  %6 = load ptr, ptr %5, align 8, !tbaa !36
  %7 = ptrtoint ptr %6 to i64
  store i64 %7, ptr %3, align 8, !tbaa !15
  call void @llvm.lifetime.start.p0(i64 8, ptr %4) #11
  store ptr null, ptr %4, align 8, !tbaa !23
  %8 = load i64, ptr %3, align 8, !tbaa !15
  %9 = icmp ult i64 %8, 40
  br i1 %9, label %10, label %18

10:                                               ; preds = %1
  %11 = load i64, ptr %3, align 8, !tbaa !15
  %12 = getelementptr inbounds nuw [40 x %struct.channel_layout_name], ptr @channel_layout_map, i64 0, i64 %11
  %13 = getelementptr inbounds nuw %struct.channel_layout_name, ptr %12, i32 0, i32 1
  store ptr %13, ptr %4, align 8, !tbaa !23
  %14 = load i64, ptr %3, align 8, !tbaa !15
  %15 = add i64 %14, 1
  %16 = inttoptr i64 %15 to ptr
  %17 = load ptr, ptr %2, align 8, !tbaa !54
  store ptr %16, ptr %17, align 8, !tbaa !36
  br label %18

18:                                               ; preds = %10, %1
  %19 = load ptr, ptr %4, align 8, !tbaa !23
  call void @llvm.lifetime.end.p0(i64 8, ptr %4) #11
  call void @llvm.lifetime.end.p0(i64 8, ptr %3) #11
  ret ptr %19
}