; Function Attrs: mustprogress nofree norecurse nosync nounwind willreturn memory(argmem: readwrite) uwtable
define ptr @av_channel_layout_standard(ptr noundef captures(none) %0) local_unnamed_addr #14 {
  %2 = load ptr, ptr %0, align 8, !tbaa !28
  %3 = icmp ult ptr %2, inttoptr (i64 40 to ptr)
  br i1 %3, label %4, label %9

4:                                                ; preds = %1
  %5 = ptrtoint ptr %2 to i64
  %6 = getelementptr inbounds nuw [40 x %struct.channel_layout_name], ptr @channel_layout_map, i64 0, i64 %5, i32 1
  %7 = add nuw nsw i64 %5, 1
  %8 = inttoptr i64 %7 to ptr
  store ptr %8, ptr %0, align 8, !tbaa !28
  br label %9

9:                                                ; preds = %4, %1
  %.0 = phi ptr [ %6, %4 ], [ null, %1 ]
  ret ptr %.0
}